target datalayout = "e-m:e-p270:32:32-p271:32:32-p272:64:64-i64:64-i128:128-f80:128-n8:16:32:64-S128"
target triple = "x86_64-unknown-linux-gnu"

%"class.FLAC::Metadata::VorbisComment::Entry" = type <{ ptr, i8, [7 x i8], %struct.FLAC__StreamMetadata_VorbisComment_Entry, ptr, i32, [4 x i8], ptr, i32, [4 x i8] }>
%struct.FLAC__StreamMetadata_VorbisComment_Entry = type { i32, ptr }

; Function Attrs: mustprogress nounwind sspstrong uwtable
define { i32, ptr } @_ZNK4FLAC8Metadata13VorbisComment5Entry9get_entryEv(ptr noundef nonnull align 8 dereferenceable(60) %this) #5 align 2 {
entry:
  %retval = alloca %struct.FLAC__StreamMetadata_VorbisComment_Entry, align 8
  %this.addr = alloca ptr, align 8
  store ptr %this, ptr %this.addr, align 8
  %this1 = load ptr, ptr %this.addr, align 8
  %entry_ = getelementptr inbounds %"class.FLAC::Metadata::VorbisComment::Entry", ptr %this1, i32 0, i32 3
  call void @llvm.memcpy.p0.p0.i64(ptr align 8 %retval, ptr align 8 %entry_, i64 16, i1 false)
  %0 = load { i32, ptr }, ptr %retval, align 8
  ret { i32, ptr } %0
}