; Function Attrs: mustprogress nofree norecurse nosync nounwind sspstrong willreturn memory(argmem: read) uwtable
define { i32, ptr } @_ZNK4FLAC8Metadata13VorbisComment5Entry9get_entryEv(ptr nocapture noundef nonnull readonly align 8 dereferenceable(60) %this) local_unnamed_addr #9 align 2 {
entry:
  %entry_ = getelementptr inbounds i8, ptr %this, i64 16
  %retval.sroa.0.0.copyload = load i32, ptr %entry_, align 8
  %retval.sroa.21.0.entry_.sroa_idx = getelementptr inbounds i8, ptr %this, i64 24
  %retval.sroa.21.0.copyload = load ptr, ptr %retval.sroa.21.0.entry_.sroa_idx, align 8
  %.fca.0.insert = insertvalue { i32, ptr } poison, i32 %retval.sroa.0.0.copyload, 0
  %.fca.1.insert = insertvalue { i32, ptr } %.fca.0.insert, ptr %retval.sroa.21.0.copyload, 1
  ret { i32, ptr } %.fca.1.insert
}